target datalayout = "e-m:e-p270:32:32-p271:32:32-p272:64:64-i64:64-i128:128-f80:128-n8:16:32:64-S128"
target triple = "x86_64-pc-linux-gnu"

%struct.hashmap = type { ptr, ptr, ptr, i32, i32, i32, i32, i8 }

; Function Attrs: nounwind uwtable
define internal void @alloc_table(ptr noundef %0, i32 noundef %1) #0 {
  %3 = alloca ptr, align 8
  %4 = alloca i32, align 4
  store ptr %0, ptr %3, align 8, !tbaa !21
  store i32 %1, ptr %4, align 4, !tbaa !9
  %5 = load i32, ptr %4, align 4, !tbaa !9
  %6 = load ptr, ptr %3, align 8, !tbaa !21
  %7 = getelementptr inbounds nuw %struct.hashmap, ptr %6, i32 0, i32 4
  store i32 %5, ptr %7, align 4, !tbaa !23
  %8 = load i32, ptr %4, align 4, !tbaa !9
  %9 = zext i32 %8 to i64
  %10 = call ptr @xcalloc(i64 noundef %9, i64 noundef 8)
  %11 = load ptr, ptr %3, align 8, !tbaa !21
  %12 = getelementptr inbounds nuw %struct.hashmap, ptr %11, i32 0, i32 0
  store ptr %10, ptr %12, align 8, !tbaa !31
  %13 = load i32, ptr %4, align 4, !tbaa !9
  %14 = zext i32 %13 to i64
  %15 = mul i64 %14, 80
  %16 = udiv i64 %15, 100
  %17 = trunc i64 %16 to i32
  %18 = load ptr, ptr %3, align 8, !tbaa !21
  %19 = getelementptr inbounds nuw %struct.hashmap, ptr %18, i32 0, i32 5
  store i32 %17, ptr %19, align 8, !tbaa !32
  %20 = load i32, ptr %4, align 4, !tbaa !9
  %21 = icmp ule i32 %20, 64
  br i1 %21, label %22, label %25

22:                                               ; preds = %2
  %23 = load ptr, ptr %3, align 8, !tbaa !21
  %24 = getelementptr inbounds nuw %struct.hashmap, ptr %23, i32 0, i32 6
  store i32 0, ptr %24, align 4, !tbaa !33
  br label %32

25:                                               ; preds = %2
  %26 = load ptr, ptr %3, align 8, !tbaa !21
  %27 = getelementptr inbounds nuw %struct.hashmap, ptr %26, i32 0, i32 5
  %28 = load i32, ptr %27, align 8, !tbaa !32
  %29 = udiv i32 %28, 5
  %30 = load ptr, ptr %3, align 8, !tbaa !21
  %31 = getelementptr inbounds nuw %struct.hashmap, ptr %30, i32 0, i32 6
  store i32 %29, ptr %31, align 4, !tbaa !33
  br label %32

32:                                               ; preds = %25, %22
  ret void
}

; Function Attrs: nounwind uwtable
define dso_local void @hashmap_init(ptr noundef %0, ptr noundef %1, ptr noundef %2, i64 noundef %3) #0 {
  %5 = alloca ptr, align 8
  %6 = alloca ptr, align 8
  %7 = alloca ptr, align 8
  %8 = alloca i64, align 8
  %9 = alloca i32, align 4
  store ptr %0, ptr %5, align 8, !tbaa !21
  store ptr %1, ptr %6, align 8, !tbaa !15
  store ptr %2, ptr %7, align 8, !tbaa !15
  store i64 %3, ptr %8, align 8, !tbaa !16
  call void @llvm.lifetime.start.p0(i64 4, ptr %9) #9
  store i32 64, ptr %9, align 4, !tbaa !9
  %10 = load ptr, ptr %5, align 8, !tbaa !21
  call void @llvm.memset.p0.i64(ptr align 8 %10, i8 0, i64 48, i1 false)
  %11 = load ptr, ptr %6, align 8, !tbaa !15
  %12 = icmp ne ptr %11, null
  br i1 %12, label %13, label %15

13:                                               ; preds = %4
  %14 = load ptr, ptr %6, align 8, !tbaa !15
  br label %16

15:                                               ; preds = %4
  br label %16

16:                                               ; preds = %15, %13
  %17 = phi ptr [ %14, %13 ], [ @always_equal, %15 ]
  %18 = load ptr, ptr %5, align 8, !tbaa !21
  %19 = getelementptr inbounds nuw %struct.hashmap, ptr %18, i32 0, i32 1
  store ptr %17, ptr %19, align 8, !tbaa !26
  %20 = load ptr, ptr %7, align 8, !tbaa !15
  %21 = load ptr, ptr %5, align 8, !tbaa !21
  %22 = getelementptr inbounds nuw %struct.hashmap, ptr %21, i32 0, i32 2
  store ptr %20, ptr %22, align 8, !tbaa !27
  %23 = load i64, ptr %8, align 8, !tbaa !16
  %24 = mul i64 %23, 100
  %25 = udiv i64 %24, 80
  %26 = trunc i64 %25 to i32
  %27 = zext i32 %26 to i64
  store i64 %27, ptr %8, align 8, !tbaa !16
  br label %28

28:                                               ; preds = %33, %16
  %29 = load i64, ptr %8, align 8, !tbaa !16
  %30 = load i32, ptr %9, align 4, !tbaa !9
  %31 = zext i32 %30 to i64
  %32 = icmp ugt i64 %29, %31
  br i1 %32, label %33, label %36

33:                                               ; preds = %28
  %34 = load i32, ptr %9, align 4, !tbaa !9
  %35 = shl i32 %34, 2
  store i32 %35, ptr %9, align 4, !tbaa !9
  br label %28, !llvm.loop !28

36:                                               ; preds = %28
  %37 = load ptr, ptr %5, align 8, !tbaa !21
  %38 = load i32, ptr %9, align 4, !tbaa !9
  call void @alloc_table(ptr noundef %37, i32 noundef %38)
  %39 = load ptr, ptr %5, align 8, !tbaa !21
  %40 = getelementptr inbounds nuw %struct.hashmap, ptr %39, i32 0, i32 7
  %41 = load i8, ptr %40, align 8
  %42 = and i8 %41, -2
  %43 = or i8 %42, 1
  store i8 %43, ptr %40, align 8
  call void @llvm.lifetime.end.p0(i64 4, ptr %9) #9
  ret void
}