; Function Attrs: nounwind uwtable
define dso_local void @hashmap_init(ptr noundef captures(none) initializes((0, 48)) %0, ptr noundef %1, ptr noundef %2, i64 noundef %3) local_unnamed_addr #3 {
  tail call void @llvm.memset.p0.i64(ptr noundef nonnull align 8 dereferenceable(48) %0, i8 0, i64 48, i1 false)
  %.not = icmp eq ptr %1, null
  %5 = select i1 %.not, ptr @always_equal, ptr %1
  %6 = getelementptr inbounds nuw i8, ptr %0, i64 8
  store ptr %5, ptr %6, align 8, !tbaa !18
  %7 = getelementptr inbounds nuw i8, ptr %0, i64 16
  store ptr %2, ptr %7, align 8, !tbaa !19
  %8 = mul i64 %3, 100
  %9 = udiv i64 %8, 80
  %10 = and i64 %9, 4294967295
  br label %11

11:                                               ; preds = %11, %4
  %.0 = phi i32 [ 64, %4 ], [ %14, %11 ]
  %12 = zext i32 %.0 to i64
  %13 = icmp samesign ugt i64 %10, %12
  %14 = shl i32 %.0, 2
  br i1 %13, label %11, label %15, !llvm.loop !20

15:                                               ; preds = %11
  %16 = getelementptr inbounds nuw i8, ptr %0, i64 28
  store i32 %.0, ptr %16, align 4, !tbaa !13
  %17 = tail call ptr @xcalloc(i64 noundef %12, i64 noundef 8) #15
  store ptr %17, ptr %0, align 8, !tbaa !21
  %18 = mul nuw nsw i64 %12, 80
  %19 = udiv i64 %18, 100
  %20 = trunc nuw i64 %19 to i32
  %21 = getelementptr inbounds nuw i8, ptr %0, i64 32
  store i32 %20, ptr %21, align 8, !tbaa !22
  %22 = icmp ult i32 %.0, 65
  %23 = udiv i32 %20, 5
  %.sink.i = select i1 %22, i32 0, i32 %23
  %24 = getelementptr inbounds nuw i8, ptr %0, i64 36
  store i32 %.sink.i, ptr %24, align 4, !tbaa !23
  %25 = getelementptr inbounds nuw i8, ptr %0, i64 40
  %26 = load i8, ptr %25, align 8
  %27 = or i8 %26, 1
  store i8 %27, ptr %25, align 8
  ret void
}